; Function Attrs: mustprogress nofree norecurse nosync nounwind willreturn memory(argmem: readwrite) uwtable
define void @_ZNK32pxrInternal_v0_24__pxrReserved__11GfDualQuatd14GetTranslationEv(ptr dead_on_unwind noalias writable writeonly sret(%"class.pxrInternal_v0_24__pxrReserved__::GfVec3d") align 8 captures(none) initializes((0, 24)) %0, ptr noundef nonnull readonly align 8 captures(none) dereferenceable(64) %1) local_unnamed_addr #3 align 2 {
  %3 = getelementptr inbounds nuw i8, ptr %1, i64 32
  %4 = getelementptr inbounds nuw i8, ptr %1, i64 56
  %5 = load double, ptr %4, align 8
  %6 = getelementptr inbounds nuw i8, ptr %1, i64 24
  %7 = load double, ptr %6, align 8
  %8 = load double, ptr %1, align 8
  %9 = load double, ptr %3, align 8
  %10 = fneg double %9
  %11 = fmul double %7, %10
  %12 = tail call double @llvm.fmuladd.f64(double %5, double %8, double %11)
  %13 = getelementptr inbounds nuw i8, ptr %1, i64 40
  %14 = load double, ptr %13, align 8
  %15 = getelementptr inbounds nuw i8, ptr %1, i64 16
  %16 = load double, ptr %15, align 8
  %17 = getelementptr inbounds nuw i8, ptr %1, i64 48
  %18 = load double, ptr %17, align 8
  %19 = getelementptr inbounds nuw i8, ptr %1, i64 8
  %20 = load double, ptr %19, align 8
  %21 = fneg double %20
  %22 = fmul double %18, %21
  %23 = tail call double @llvm.fmuladd.f64(double %14, double %16, double %22)
  %24 = fadd double %12, %23
  %25 = fmul double %24, -2.000000e+00
  %26 = fneg double %14
  %27 = fmul double %7, %26
  %28 = tail call double @llvm.fmuladd.f64(double %5, double %20, double %27)
  %29 = fneg double %16
  %30 = fmul double %9, %29
  %31 = tail call double @llvm.fmuladd.f64(double %18, double %8, double %30)
  %32 = fadd double %31, %28
  %33 = fmul double %32, -2.000000e+00
  %34 = fneg double %18
  %35 = fmul double %7, %34
  %36 = tail call double @llvm.fmuladd.f64(double %5, double %16, double %35)
  %37 = fneg double %8
  %38 = fmul double %14, %37
  %39 = tail call double @llvm.fmuladd.f64(double %9, double %20, double %38)
  %40 = fadd double %36, %39
  %41 = fmul double %40, -2.000000e+00
  store double %25, ptr %0, align 8
  %42 = getelementptr inbounds nuw i8, ptr %0, i64 8
  store double %33, ptr %42, align 8
  %43 = getelementptr inbounds nuw i8, ptr %0, i64 16
  store double %41, ptr %43, align 8
  ret void
}